target datalayout = "e-m:e-p270:32:32-p271:32:32-p272:64:64-i64:64-i128:128-f80:128-n8:16:32:64-S128"
target triple = "x86_64-pc-linux-gnu"

%"class.std::vector" = type { %"struct.std::_Vector_base" }
%"struct.std::_Vector_base" = type { %"struct.std::_Vector_base<casadi::MX, std::allocator<casadi::MX>>::_Vector_impl" }
%"struct.std::_Vector_base<casadi::MX, std::allocator<casadi::MX>>::_Vector_impl" = type { %"struct.std::_Vector_base<casadi::MX, std::allocator<casadi::MX>>::_Vector_impl_data" }
%"struct.std::_Vector_base<casadi::MX, std::allocator<casadi::MX>>::_Vector_impl_data" = type { ptr, ptr, ptr }
%"class.casadi::SharedObject" = type { ptr }
%"class.casadi::MX" = type { %"class.casadi::SharedObject" }

; Function Attrs: mustprogress uwtable
define linkonce_odr hidden noundef nonnull align 8 dereferenceable(8) ptr @_ZN6casadi2MXaSERKS0_(ptr noundef nonnull align 8 dereferenceable(8) %0, ptr noundef nonnull align 8 dereferenceable(8) %1) #4 comdat align 2 {
  %3 = alloca ptr, align 8
  %4 = alloca ptr, align 8
  store ptr %0, ptr %3, align 8
  store ptr %1, ptr %4, align 8
  %5 = load ptr, ptr %3, align 8
  %6 = load ptr, ptr %4, align 8
  %7 = call noundef nonnull align 8 dereferenceable(8) ptr @_ZN6casadi12SharedObjectaSERKS0_(ptr noundef nonnull align 8 dereferenceable(8) %5, ptr noundef nonnull align 8 dereferenceable(8) %6)
  ret ptr %5
}

; Function Attrs: mustprogress uwtable
define linkonce_odr hidden void @_ZN6casadi13GenericMatrixINS_2MXEE5zerosERKNS_8SparsityE(ptr dead_on_unwind noalias writable sret(%"class.casadi::MX") align 8 %0, ptr noundef nonnull align 8 dereferenceable(8) %1) #4 comdat align 2 {
  %3 = alloca ptr, align 8
  %4 = alloca ptr, align 8
  store ptr %0, ptr %3, align 8
  store ptr %1, ptr %4, align 8
  %5 = load ptr, ptr %4, align 8
  call void @_ZN6casadi2MXC1ERKNS_8SparsityEdb(ptr noundef nonnull align 8 dereferenceable(8) %0, ptr noundef nonnull align 8 dereferenceable(8) %5, double noundef 0.000000e+00, i1 noundef zeroext false)
  ret void
}

; Function Attrs: mustprogress nounwind uwtable
define linkonce_odr hidden noundef nonnull align 8 dereferenceable(8) ptr @_ZNSt6vectorIN6casadi2MXESaIS1_EEixEm(ptr noundef nonnull align 8 dereferenceable(24) %0, i64 noundef %1) #5 comdat align 2 {
  %3 = alloca ptr, align 8
  %4 = alloca i64, align 8
  store ptr %0, ptr %3, align 8
  store i64 %1, ptr %4, align 8
  %5 = load ptr, ptr %3, align 8
  %6 = getelementptr inbounds %"struct.std::_Vector_base", ptr %5, i32 0, i32 0
  %7 = getelementptr inbounds %"struct.std::_Vector_base<casadi::MX, std::allocator<casadi::MX>>::_Vector_impl_data", ptr %6, i32 0, i32 0
  %8 = load ptr, ptr %7, align 8
  %9 = load i64, ptr %4, align 8
  %10 = getelementptr inbounds %"class.casadi::MX", ptr %8, i64 %9
  ret ptr %10
}

; Function Attrs: mustprogress nounwind uwtable
define linkonce_odr hidden noundef i64 @_ZNKSt6vectorIN6casadi2MXESaIS1_EE4sizeEv(ptr noundef nonnull align 8 dereferenceable(24) %0) #5 comdat align 2 {
  %2 = alloca ptr, align 8
  store ptr %0, ptr %2, align 8
  %3 = load ptr, ptr %2, align 8
  %4 = getelementptr inbounds %"struct.std::_Vector_base", ptr %3, i32 0, i32 0
  %5 = getelementptr inbounds %"struct.std::_Vector_base<casadi::MX, std::allocator<casadi::MX>>::_Vector_impl_data", ptr %4, i32 0, i32 1
  %6 = load ptr, ptr %5, align 8
  %7 = getelementptr inbounds %"struct.std::_Vector_base", ptr %3, i32 0, i32 0
  %8 = getelementptr inbounds %"struct.std::_Vector_base<casadi::MX, std::allocator<casadi::MX>>::_Vector_impl_data", ptr %7, i32 0, i32 0
  %9 = load ptr, ptr %8, align 8
  %10 = ptrtoint ptr %6 to i64
  %11 = ptrtoint ptr %9 to i64
  %12 = sub i64 %10, %11
  %13 = sdiv exact i64 %12, 8
  ret i64 %13
}

; Function Attrs: mustprogress uwtable
define void @_ZNK6casadi6MXNode13get_diagsplitERKSt6vectorIxSaIxEES5_(ptr dead_on_unwind noalias writable sret(%"class.std::vector") align 8 %0, ptr noundef nonnull align 8 dereferenceable(64) %1, ptr noundef nonnull align 8 dereferenceable(24) %2, ptr noundef nonnull align 8 dereferenceable(24) %3) unnamed_addr #4 align 2 personality ptr @__gxx_personality_v0 {
  %5 = alloca ptr, align 8
  %6 = alloca ptr, align 8
  %7 = alloca ptr, align 8
  %8 = alloca ptr, align 8
  %9 = alloca i1, align 1
  %10 = alloca %"class.casadi::MX", align 8
  %11 = alloca ptr, align 8
  %12 = alloca i32, align 4
  %13 = alloca i1, align 1
  %14 = alloca i64, align 8
  %15 = alloca %"class.casadi::MX", align 8
  %16 = alloca i1, align 1
  %17 = alloca %"class.casadi::MX", align 8
  %18 = alloca i1, align 1
  store ptr %0, ptr %5, align 8
  store ptr %1, ptr %6, align 8
  store ptr %2, ptr %7, align 8
  store ptr %3, ptr %8, align 8
  %19 = load ptr, ptr %6, align 8
  %20 = load ptr, ptr %19, align 8
  %21 = getelementptr inbounds ptr, ptr %20, i64 5
  %22 = load ptr, ptr %21, align 8
  %23 = call noundef zeroext i1 %22(ptr noundef nonnull align 8 dereferenceable(64) %19)
  br i1 %23, label %24, label %73

24:                                               ; preds = %4
  store i1 false, ptr %9, align 1
  %25 = call noalias noundef nonnull ptr @_Znwm(i64 noundef 112) #19
  store i1 true, ptr %13, align 1
  invoke void @_ZNK6casadi20SharedObjectInternal16shared_from_thisINS_2MXEEEKT_v(ptr dead_on_unwind writable sret(%"class.casadi::MX") align 8 %10, ptr noundef nonnull align 8 dereferenceable(24) %19)
          to label %26 unwind label %48

26:                                               ; preds = %24
  %27 = load ptr, ptr %7, align 8
  %28 = load ptr, ptr %8, align 8
  invoke void @_ZN6casadi9DiagsplitC1ERKNS_2MXERKSt6vectorIxSaIxEES8_(ptr noundef nonnull align 8 dereferenceable(112) %25, ptr noundef nonnull align 8 dereferenceable(8) %10, ptr noundef nonnull align 8 dereferenceable(24) %27, ptr noundef nonnull align 8 dereferenceable(24) %28)
          to label %29 unwind label %52

29:                                               ; preds = %26
  store i1 false, ptr %13, align 1
  invoke void @_ZN6casadi2MX20createMultipleOutputEPNS_6MXNodeE(ptr dead_on_unwind writable sret(%"class.std::vector") align 8 %0, ptr noundef %25)
          to label %30 unwind label %52

30:                                               ; preds = %29
  call void @_ZN6casadi2MXD1Ev(ptr noundef nonnull align 8 dereferenceable(8) %10) #3
  store i64 0, ptr %14, align 8
  br label %31

31:                                               ; preds = %45, %30
  %32 = load i64, ptr %14, align 8
  %33 = call noundef i64 @_ZNKSt6vectorIN6casadi2MXESaIS1_EE4sizeEv(ptr noundef nonnull align 8 dereferenceable(24) %0) #3
  %34 = icmp ult i64 %32, %33
  br i1 %34, label %35, label %68

35:                                               ; preds = %31
  %36 = load i64, ptr %14, align 8
  %37 = call noundef nonnull align 8 dereferenceable(8) ptr @_ZNSt6vectorIN6casadi2MXESaIS1_EEixEm(ptr noundef nonnull align 8 dereferenceable(24) %0, i64 noundef %36) #3
  %38 = invoke noundef nonnull align 8 dereferenceable(8) ptr @_ZNK6casadi2MX8sparsityEv(ptr noundef nonnull align 8 dereferenceable(8) %37)
          to label %39 unwind label %60

39:                                               ; preds = %35
  invoke void @_ZN6casadi13GenericMatrixINS_2MXEE5zerosERKNS_8SparsityE(ptr dead_on_unwind writable sret(%"class.casadi::MX") align 8 %15, ptr noundef nonnull align 8 dereferenceable(8) %38)
          to label %40 unwind label %60

40:                                               ; preds = %39
  %41 = load i64, ptr %14, align 8
  %42 = call noundef nonnull align 8 dereferenceable(8) ptr @_ZNSt6vectorIN6casadi2MXESaIS1_EEixEm(ptr noundef nonnull align 8 dereferenceable(24) %0, i64 noundef %41) #3
  %43 = invoke noundef nonnull align 8 dereferenceable(8) ptr @_ZN6casadi2MXaSERKS0_(ptr noundef nonnull align 8 dereferenceable(8) %42, ptr noundef nonnull align 8 dereferenceable(8) %15)
          to label %44 unwind label %64

44:                                               ; preds = %40
  call void @_ZN6casadi2MXD1Ev(ptr noundef nonnull align 8 dereferenceable(8) %15) #3
  br label %45

45:                                               ; preds = %44
  %46 = load i64, ptr %14, align 8
  %47 = add nsw i64 %46, 1
  store i64 %47, ptr %14, align 8
  br label %31, !llvm.loop !30

48:                                               ; preds = %24
  %49 = landingpad { ptr, i32 }
          cleanup
  %50 = extractvalue { ptr, i32 } %49, 0
  store ptr %50, ptr %11, align 8
  %51 = extractvalue { ptr, i32 } %49, 1
  store i32 %51, ptr %12, align 4
  br label %56

52:                                               ; preds = %29, %26
  %53 = landingpad { ptr, i32 }
          cleanup
  %54 = extractvalue { ptr, i32 } %53, 0
  store ptr %54, ptr %11, align 8
  %55 = extractvalue { ptr, i32 } %53, 1
  store i32 %55, ptr %12, align 4
  call void @_ZN6casadi2MXD1Ev(ptr noundef nonnull align 8 dereferenceable(8) %10) #3
  br label %56

56:                                               ; preds = %52, %48
  %57 = load i1, ptr %13, align 1
  br i1 %57, label %58, label %59

58:                                               ; preds = %56
  call void @_ZdlPv(ptr noundef %25) #20
  br label %59

59:                                               ; preds = %58, %56
  br label %96

60:                                               ; preds = %39, %35
  %61 = landingpad { ptr, i32 }
          cleanup
  %62 = extractvalue { ptr, i32 } %61, 0
  store ptr %62, ptr %11, align 8
  %63 = extractvalue { ptr, i32 } %61, 1
  store i32 %63, ptr %12, align 4
  br label %72

64:                                               ; preds = %40
  %65 = landingpad { ptr, i32 }
          cleanup
  %66 = extractvalue { ptr, i32 } %65, 0
  store ptr %66, ptr %11, align 8
  %67 = extractvalue { ptr, i32 } %65, 1
  store i32 %67, ptr %12, align 4
  call void @_ZN6casadi2MXD1Ev(ptr noundef nonnull align 8 dereferenceable(8) %15) #3
  br label %72

68:                                               ; preds = %31
  store i1 true, ptr %9, align 1
  %69 = load i1, ptr %9, align 1
  br i1 %69, label %71, label %70

70:                                               ; preds = %68
  call void @_ZNSt6vectorIN6casadi2MXESaIS1_EED2Ev(ptr noundef nonnull align 8 dereferenceable(24) %0) #3
  br label %71

71:                                               ; preds = %70, %68
  br label %95

72:                                               ; preds = %64, %60
  call void @_ZNSt6vectorIN6casadi2MXESaIS1_EED2Ev(ptr noundef nonnull align 8 dereferenceable(24) %0) #3
  br label %96

73:                                               ; preds = %4
  store i1 false, ptr %16, align 1
  %74 = call noalias noundef nonnull ptr @_Znwm(i64 noundef 112) #19
  store i1 true, ptr %18, align 1
  invoke void @_ZNK6casadi20SharedObjectInternal16shared_from_thisINS_2MXEEEKT_v(ptr dead_on_unwind writable sret(%"class.casadi::MX") align 8 %17, ptr noundef nonnull align 8 dereferenceable(24) %19)
          to label %75 unwind label %81

75:                                               ; preds = %73
  %76 = load ptr, ptr %7, align 8
  %77 = load ptr, ptr %8, align 8
  invoke void @_ZN6casadi9DiagsplitC1ERKNS_2MXERKSt6vectorIxSaIxEES8_(ptr noundef nonnull align 8 dereferenceable(112) %74, ptr noundef nonnull align 8 dereferenceable(8) %17, ptr noundef nonnull align 8 dereferenceable(24) %76, ptr noundef nonnull align 8 dereferenceable(24) %77)
          to label %78 unwind label %85

78:                                               ; preds = %75
  store i1 false, ptr %18, align 1
  invoke void @_ZN6casadi2MX20createMultipleOutputEPNS_6MXNodeE(ptr dead_on_unwind writable sret(%"class.std::vector") align 8 %0, ptr noundef %74)
          to label %79 unwind label %85

79:                                               ; preds = %78
  call void @_ZN6casadi2MXD1Ev(ptr noundef nonnull align 8 dereferenceable(8) %17) #3
  store i1 true, ptr %16, align 1
  %80 = load i1, ptr %16, align 1
  br i1 %80, label %94, label %93

81:                                               ; preds = %73
  %82 = landingpad { ptr, i32 }
          cleanup
  %83 = extractvalue { ptr, i32 } %82, 0
  store ptr %83, ptr %11, align 8
  %84 = extractvalue { ptr, i32 } %82, 1
  store i32 %84, ptr %12, align 4
  br label %89

85:                                               ; preds = %78, %75
  %86 = landingpad { ptr, i32 }
          cleanup
  %87 = extractvalue { ptr, i32 } %86, 0
  store ptr %87, ptr %11, align 8
  %88 = extractvalue { ptr, i32 } %86, 1
  store i32 %88, ptr %12, align 4
  call void @_ZN6casadi2MXD1Ev(ptr noundef nonnull align 8 dereferenceable(8) %17) #3
  br label %89

89:                                               ; preds = %85, %81
  %90 = load i1, ptr %18, align 1
  br i1 %90, label %91, label %92

91:                                               ; preds = %89
  call void @_ZdlPv(ptr noundef %74) #20
  br label %92

92:                                               ; preds = %91, %89
  br label %96

93:                                               ; preds = %79
  call void @_ZNSt6vectorIN6casadi2MXESaIS1_EED2Ev(ptr noundef nonnull align 8 dereferenceable(24) %0) #3
  br label %94

94:                                               ; preds = %93, %79
  br label %95

95:                                               ; preds = %94, %71
  ret void

96:                                               ; preds = %92, %72, %59
  %97 = load ptr, ptr %11, align 8
  %98 = load i32, ptr %12, align 4
  %99 = insertvalue { ptr, i32 } poison, ptr %97, 0
  %100 = insertvalue { ptr, i32 } %99, i32 %98, 1
  resume { ptr, i32 } %100
}