; Function Attrs: mustprogress uwtable
define void @_ZNK6casadi6MXNode13get_diagsplitERKSt6vectorIxSaIxEES5_(ptr dead_on_unwind noalias writable sret(%"class.std::vector") align 8 %0, ptr noundef nonnull align 8 dereferenceable(64) %1, ptr noundef nonnull align 8 dereferenceable(24) %2, ptr noundef nonnull align 8 dereferenceable(24) %3) unnamed_addr #3 align 2 personality ptr @__gxx_personality_v0 {
  %5 = alloca %"class.casadi::MX", align 8
  %6 = alloca %"class.casadi::MX", align 8
  %7 = alloca %"class.casadi::MX", align 8
  %8 = load ptr, ptr %1, align 8
  %9 = getelementptr inbounds i8, ptr %8, i64 40
  %10 = load ptr, ptr %9, align 8
  %11 = tail call noundef zeroext i1 %10(ptr noundef nonnull align 8 dereferenceable(64) %1)
  %12 = tail call noalias noundef nonnull dereferenceable(112) ptr @_Znwm(i64 noundef 112) #35
  br i1 %11, label %13, label %45

13:                                               ; preds = %4
  invoke void @_ZNK6casadi20SharedObjectInternal16shared_from_thisINS_2MXEEEKT_v(ptr dead_on_unwind nonnull writable sret(%"class.casadi::MX") align 8 %5, ptr noundef nonnull align 8 dereferenceable(24) %1)
          to label %14 unwind label %.thread

14:                                               ; preds = %13
  invoke void @_ZN6casadi9DiagsplitC1ERKNS_2MXERKSt6vectorIxSaIxEES8_(ptr noundef nonnull align 8 dereferenceable(112) %12, ptr noundef nonnull align 8 dereferenceable(8) %5, ptr noundef nonnull align 8 dereferenceable(24) %2, ptr noundef nonnull align 8 dereferenceable(24) %3)
          to label %16 unwind label %.thread32

.thread32:                                        ; preds = %14
  %15 = landingpad { ptr, i32 }
          cleanup
  call void @_ZN6casadi2MXD1Ev(ptr noundef nonnull align 8 dereferenceable(8) %5) #31
  br label %39

16:                                               ; preds = %14
  invoke void @_ZN6casadi2MX20createMultipleOutputEPNS_6MXNodeE(ptr dead_on_unwind writable sret(%"class.std::vector") align 8 %0, ptr noundef nonnull %12)
          to label %17 unwind label %37

17:                                               ; preds = %16
  call void @_ZN6casadi2MXD1Ev(ptr noundef nonnull align 8 dereferenceable(8) %5) #31
  %18 = getelementptr inbounds i8, ptr %0, i64 8
  %19 = load ptr, ptr %18, align 8
  %20 = load ptr, ptr %0, align 8
  %.not = icmp eq ptr %19, %20
  br i1 %.not, label %.loopexit, label %.lr.ph

.lr.ph:                                           ; preds = %17, %_ZN6casadi2MXaSERKS0_.exit
  %21 = phi ptr [ %30, %_ZN6casadi2MXaSERKS0_.exit ], [ %20, %17 ]
  %.01440 = phi i64 [ %28, %_ZN6casadi2MXaSERKS0_.exit ], [ 0, %17 ]
  %22 = getelementptr inbounds %"class.casadi::MX", ptr %21, i64 %.01440
  %23 = invoke noundef nonnull align 8 dereferenceable(8) ptr @_ZNK6casadi2MX8sparsityEv(ptr noundef nonnull align 8 dereferenceable(8) %22)
          to label %24 unwind label %40

24:                                               ; preds = %.lr.ph
  invoke void @_ZN6casadi2MXC1ERKNS_8SparsityEdb(ptr noundef nonnull align 8 dereferenceable(8) %6, ptr noundef nonnull align 8 dereferenceable(8) %23, double noundef 0.000000e+00, i1 noundef zeroext false)
          to label %_ZN6casadi13GenericMatrixINS_2MXEE5zerosERKNS_8SparsityE.exit unwind label %40

_ZN6casadi13GenericMatrixINS_2MXEE5zerosERKNS_8SparsityE.exit: ; preds = %24
  %25 = load ptr, ptr %0, align 8
  %26 = getelementptr inbounds %"class.casadi::MX", ptr %25, i64 %.01440
  %27 = invoke noundef nonnull align 8 dereferenceable(8) ptr @_ZN6casadi12SharedObjectaSERKS0_(ptr noundef nonnull align 8 dereferenceable(8) %26, ptr noundef nonnull align 8 dereferenceable(8) %6)
          to label %_ZN6casadi2MXaSERKS0_.exit unwind label %42

_ZN6casadi2MXaSERKS0_.exit:                       ; preds = %_ZN6casadi13GenericMatrixINS_2MXEE5zerosERKNS_8SparsityE.exit
  call void @_ZN6casadi2MXD1Ev(ptr noundef nonnull align 8 dereferenceable(8) %6) #31
  %28 = add nuw nsw i64 %.01440, 1
  %29 = load ptr, ptr %18, align 8
  %30 = load ptr, ptr %0, align 8
  %31 = ptrtoint ptr %29 to i64
  %32 = ptrtoint ptr %30 to i64
  %33 = sub i64 %31, %32
  %34 = ashr exact i64 %33, 3
  %35 = icmp ult i64 %28, %34
  br i1 %35, label %.lr.ph, label %.loopexit, !llvm.loop !199

.thread:                                          ; preds = %13
  %36 = landingpad { ptr, i32 }
          cleanup
  br label %39

37:                                               ; preds = %16
  %38 = landingpad { ptr, i32 }
          cleanup
  call void @_ZN6casadi2MXD1Ev(ptr noundef nonnull align 8 dereferenceable(8) %5) #31
  br label %54

39:                                               ; preds = %.thread32, %.thread
  %.pn2431 = phi { ptr, i32 } [ %36, %.thread ], [ %15, %.thread32 ]
  call void @_ZdlPv(ptr noundef nonnull %12) #32
  br label %54

40:                                               ; preds = %24, %.lr.ph
  %41 = landingpad { ptr, i32 }
          cleanup
  br label %44

42:                                               ; preds = %_ZN6casadi13GenericMatrixINS_2MXEE5zerosERKNS_8SparsityE.exit
  %43 = landingpad { ptr, i32 }
          cleanup
  call void @_ZN6casadi2MXD1Ev(ptr noundef nonnull align 8 dereferenceable(8) %6) #31
  br label %44

44:                                               ; preds = %42, %40
  %.pn26 = phi { ptr, i32 } [ %43, %42 ], [ %41, %40 ]
  call void @_ZNSt6vectorIN6casadi2MXESaIS1_EED2Ev(ptr noundef nonnull align 8 dereferenceable(24) %0) #31
  br label %54

45:                                               ; preds = %4
  invoke void @_ZNK6casadi20SharedObjectInternal16shared_from_thisINS_2MXEEEKT_v(ptr dead_on_unwind nonnull writable sret(%"class.casadi::MX") align 8 %7, ptr noundef nonnull align 8 dereferenceable(24) %1)
          to label %46 unwind label %.thread34

46:                                               ; preds = %45
  invoke void @_ZN6casadi9DiagsplitC1ERKNS_2MXERKSt6vectorIxSaIxEES8_(ptr noundef nonnull align 8 dereferenceable(112) %12, ptr noundef nonnull align 8 dereferenceable(8) %7, ptr noundef nonnull align 8 dereferenceable(24) %2, ptr noundef nonnull align 8 dereferenceable(24) %3)
          to label %48 unwind label %.thread38

.thread38:                                        ; preds = %46
  %47 = landingpad { ptr, i32 }
          cleanup
  call void @_ZN6casadi2MXD1Ev(ptr noundef nonnull align 8 dereferenceable(8) %7) #31
  br label %53

48:                                               ; preds = %46
  invoke void @_ZN6casadi2MX20createMultipleOutputEPNS_6MXNodeE(ptr dead_on_unwind writable sret(%"class.std::vector") align 8 %0, ptr noundef nonnull %12)
          to label %49 unwind label %51

49:                                               ; preds = %48
  call void @_ZN6casadi2MXD1Ev(ptr noundef nonnull align 8 dereferenceable(8) %7) #31
  br label %.loopexit

.thread34:                                        ; preds = %45
  %50 = landingpad { ptr, i32 }
          cleanup
  br label %53

51:                                               ; preds = %48
  %52 = landingpad { ptr, i32 }
          cleanup
  call void @_ZN6casadi2MXD1Ev(ptr noundef nonnull align 8 dereferenceable(8) %7) #31
  br label %54

53:                                               ; preds = %.thread38, %.thread34
  %.pn37 = phi { ptr, i32 } [ %50, %.thread34 ], [ %47, %.thread38 ]
  call void @_ZdlPv(ptr noundef nonnull %12) #32
  br label %54

.loopexit:                                        ; preds = %_ZN6casadi2MXaSERKS0_.exit, %17, %49
  ret void

54:                                               ; preds = %51, %37, %53, %39, %44
  %.pn26.pn = phi { ptr, i32 } [ %.pn26, %44 ], [ %.pn2431, %39 ], [ %38, %37 ], [ %.pn37, %53 ], [ %52, %51 ]
  resume { ptr, i32 } %.pn26.pn
}